; Function Attrs: mustprogress nounwind uwtable
define internal void @_ZNSt15_Sp_counted_ptrIPN2cv6detail10VectorRefTIN6custom12_GLOBAL__N_14FaceEEELN9__gnu_cxx12_Lock_policyE2EE10_M_disposeEv(ptr noundef nonnull readonly align 8 captures(none) dereferenceable(24) %0) unnamed_addr #5 align 2 personality ptr @__gxx_personality_v0 {
  %2 = getelementptr inbounds nuw i8, ptr %0, i64 16
  %3 = load ptr, ptr %2, align 8, !tbaa !986
  %4 = icmp eq ptr %3, null
  br i1 %4, label %14, label %5

5:                                                ; preds = %1
  %6 = getelementptr inbounds nuw i8, ptr %3, i64 24
  %7 = load i64, ptr %6, align 8, !tbaa !511
  %8 = getelementptr inbounds nuw [4 x ptr], ptr @constinit.63, i64 0, i64 %7
  %9 = load ptr, ptr %8, align 8, !tbaa !89
  %10 = getelementptr inbounds nuw i8, ptr %3, i64 32
  invoke void %9(ptr noundef nonnull %10)
          to label %_ZN2cv6detail10VectorRefTIN6custom12_GLOBAL__N_14FaceEED2Ev.exit unwind label %11

11:                                               ; preds = %5
  %12 = landingpad { ptr, i32 }
          catch ptr null
  %13 = extractvalue { ptr, i32 } %12, 0
  tail call void @__clang_call_terminate(ptr %13) #39
  unreachable

_ZN2cv6detail10VectorRefTIN6custom12_GLOBAL__N_14FaceEED2Ev.exit: ; preds = %5
  tail call void @_ZdlPv(ptr noundef nonnull %3) #36
  br label %14

14:                                               ; preds = %_ZN2cv6detail10VectorRefTIN6custom12_GLOBAL__N_14FaceEED2Ev.exit, %1
  ret void
}